; Function Attrs: mustprogress uwtable
define void @_ZN2cv3dnn14dnn4_v2024122315readNetFromONNXERKNSt7__cxx1112basic_stringIcSt11char_traitsIcESaIcEEE(ptr dead_on_unwind noalias writable sret(%"class.cv::dnn::dnn4_v20241223::Net") align 8 %0, ptr noundef nonnull readonly align 8 captures(none) dereferenceable(32) %1) local_unnamed_addr #4 {
  %3 = alloca ptr, align 8
  call void @llvm.lifetime.start.p0(i64 8, ptr nonnull %3) #31
  %4 = load ptr, ptr %1, align 8, !tbaa !36
  store ptr %4, ptr %3, align 8, !tbaa !928
  call void @_ZN2cv3dnn14dnn4_v202412236detail17readNetDiagnosticINS1_12ONNXImporterEJPKcEEENS1_3NetEDpOT0_(ptr dead_on_unwind writable sret(%"class.cv::dnn::dnn4_v20241223::Net") align 8 %0, ptr noundef nonnull align 8 dereferenceable(8) %3)
  call void @llvm.lifetime.end.p0(i64 8, ptr nonnull %3) #31
  ret void
}